; Function Attrs: mustprogress uwtable
define void @_ZN6icu_759LocaleKeyC2ERKNS_13UnicodeStringES3_PS2_i(ptr noundef nonnull align 8 dereferenceable(272) %this, ptr noundef nonnull align 8 dereferenceable(64) %primaryID, ptr noundef nonnull align 8 dereferenceable(64) %canonicalPrimaryID, ptr noundef %canonicalFallbackID, i32 noundef %kind) unnamed_addr #1 align 2 personality ptr @__gxx_personality_v0 {
entry:
  tail call void @_ZN6icu_7513ICUServiceKeyC2ERKNS_13UnicodeStringE(ptr noundef nonnull align 8 dereferenceable(72) %this, ptr noundef nonnull align 8 dereferenceable(64) %primaryID)
  store ptr getelementptr inbounds ({ [15 x ptr] }, ptr @_ZTVN6icu_759LocaleKeyE, i64 0, i32 0, i64 2), ptr %this, align 8
  %_kind = getelementptr inbounds i8, ptr %this, i64 72
  store i32 %kind, ptr %_kind, align 8
  %_primaryID = getelementptr inbounds i8, ptr %this, i64 80
  invoke void @_ZN6icu_7513UnicodeStringC1ERKS0_(ptr noundef nonnull align 8 dereferenceable(64) %_primaryID, ptr noundef nonnull align 8 dereferenceable(64) %canonicalPrimaryID)
          to label %invoke.cont5 unwind label %lpad

invoke.cont5:                                     ; preds = %entry
  %_fallbackID = getelementptr inbounds i8, ptr %this, i64 144
  store ptr getelementptr inbounds ({ [13 x ptr] }, ptr @_ZTVN6icu_7513UnicodeStringE, i64 0, i32 0, i64 2), ptr %_fallbackID, align 8
  %fUnion2.i = getelementptr inbounds i8, ptr %this, i64 152
  store i16 2, ptr %fUnion2.i, align 8
  %_currentID = getelementptr inbounds i8, ptr %this, i64 208
  store ptr getelementptr inbounds ({ [13 x ptr] }, ptr @_ZTVN6icu_7513UnicodeStringE, i64 0, i32 0, i64 2), ptr %_currentID, align 8
  %fUnion2.i6 = getelementptr inbounds i8, ptr %this, i64 216
  store i16 2, ptr %fUnion2.i6, align 8
  invoke void @_ZN6icu_7513UnicodeString10setToBogusEv(ptr noundef nonnull align 8 dereferenceable(64) %_fallbackID)
          to label %invoke.cont10 unwind label %lpad7

invoke.cont10:                                    ; preds = %invoke.cont5
  %fUnion.i.i = getelementptr inbounds i8, ptr %this, i64 88
  %0 = load i16, ptr %fUnion.i.i, align 8
  %cmp.i.i = icmp slt i16 %0, 0
  %1 = ashr i16 %0, 5
  %shr.i.i = sext i16 %1 to i32
  %fLength.i = getelementptr inbounds i8, ptr %this, i64 92
  %2 = load i32, ptr %fLength.i, align 4
  %cond.i = select i1 %cmp.i.i, i32 %2, i32 %shr.i.i
  %cmp = icmp ne i32 %cond.i, 0
  %cmp11 = icmp ne ptr %canonicalFallbackID, null
  %or.cond = and i1 %cmp11, %cmp
  br i1 %or.cond, label %land.lhs.true, label %if.end19

land.lhs.true:                                    ; preds = %invoke.cont10
  %conv2.i14.i.i = and i16 %0, 1
  %tobool.not.i.i = icmp eq i16 %conv2.i14.i.i, 0
  %fUnion.i.i7.i.i = getelementptr inbounds i8, ptr %canonicalFallbackID, i64 8
  %3 = load i16, ptr %fUnion.i.i7.i.i, align 8
  br i1 %tobool.not.i.i, label %if.else.i.i, label %if.then.i.i

if.then.i.i:                                      ; preds = %land.lhs.true
  %conv2.i615.i.i = and i16 %3, 1
  %tobool3.i.i.not = icmp eq i16 %conv2.i615.i.i, 0
  br i1 %tobool3.i.i.not, label %if.then15, label %if.end19

if.else.i.i:                                      ; preds = %land.lhs.true
  %cmp.i.i8.i.i = icmp slt i16 %3, 0
  %4 = ashr i16 %3, 5
  %shr.i.i9.i.i = sext i16 %4 to i32
  %fLength.i10.i.i = getelementptr inbounds i8, ptr %canonicalFallbackID, i64 12
  %5 = load i32, ptr %fLength.i10.i.i, align 4
  %cond.i11.i.i = select i1 %cmp.i.i8.i.i, i32 %5, i32 %shr.i.i9.i.i
  %conv2.i1316.i.i = and i16 %3, 1
  %tobool7.not.i.i = icmp eq i16 %conv2.i1316.i.i, 0
  %cmp.i.i7 = icmp eq i32 %cond.i, %cond.i11.i.i
  %or.cond.i.i = and i1 %tobool7.not.i.i, %cmp.i.i7
  br i1 %or.cond.i.i, label %land.rhs.i.i, label %if.then15

land.rhs.i.i:                                     ; preds = %if.else.i.i
  %call8.i.i8 = invoke noundef signext i8 @_ZNK6icu_7513UnicodeString8doEqualsERKS0_i(ptr noundef nonnull align 8 dereferenceable(64) %_primaryID, ptr noundef nonnull align 8 dereferenceable(64) %canonicalFallbackID, i32 noundef %cond.i)
          to label %invoke.cont13 unwind label %lpad7

invoke.cont13:                                    ; preds = %land.rhs.i.i
  %tobool9.i.i.not = icmp eq i8 %call8.i.i8, 0
  br i1 %tobool9.i.i.not, label %if.then15, label %if.end19

if.then15:                                        ; preds = %if.then.i.i, %if.else.i.i, %invoke.cont13
  %call18 = invoke noundef nonnull align 8 dereferenceable(64) ptr @_ZN6icu_7513UnicodeStringaSERKS0_(ptr noundef nonnull align 8 dereferenceable(64) %_fallbackID, ptr noundef nonnull align 8 dereferenceable(64) %canonicalFallbackID)
          to label %if.end19 unwind label %lpad7

lpad:                                             ; preds = %entry
  %6 = landingpad { ptr, i32 }
          cleanup
  br label %ehcleanup25

lpad7:                                            ; preds = %land.rhs.i.i, %if.end19, %if.then15, %invoke.cont5
  %7 = landingpad { ptr, i32 }
          cleanup
  tail call void @_ZN6icu_7513UnicodeStringD1Ev(ptr noundef nonnull align 8 dereferenceable(64) %_currentID) #11
  tail call void @_ZN6icu_7513UnicodeStringD1Ev(ptr noundef nonnull align 8 dereferenceable(64) %_fallbackID) #11
  tail call void @_ZN6icu_7513UnicodeStringD1Ev(ptr noundef nonnull align 8 dereferenceable(64) %_primaryID) #11
  br label %ehcleanup25

if.end19:                                         ; preds = %if.then.i.i, %invoke.cont13, %if.then15, %invoke.cont10
  %call23 = invoke noundef nonnull align 8 dereferenceable(64) ptr @_ZN6icu_7513UnicodeStringaSERKS0_(ptr noundef nonnull align 8 dereferenceable(64) %_currentID, ptr noundef nonnull align 8 dereferenceable(64) %_primaryID)
          to label %invoke.cont22 unwind label %lpad7

invoke.cont22:                                    ; preds = %if.end19
  ret void

ehcleanup25:                                      ; preds = %lpad7, %lpad
  %.pn.pn.pn = phi { ptr, i32 } [ %7, %lpad7 ], [ %6, %lpad ]
  tail call void @_ZN6icu_7513ICUServiceKeyD2Ev(ptr noundef nonnull align 8 dereferenceable(72) %this) #11
  resume { ptr, i32 } %.pn.pn.pn
}